target datalayout = "e-m:e-p270:32:32-p271:32:32-p272:64:64-i64:64-i128:128-f80:128-n8:16:32:64-S128"
target triple = "x86_64-pc-linux-gnu"

%struct._zend_refcounted_h = type { i32, %union.anon.3 }
%union.anon.3 = type { i32 }
%struct._zend_utility_values = type { i8 }
%struct._zend_ini_entry = type { ptr, ptr, ptr, ptr, ptr, ptr, ptr, ptr, i32, i8, i8, i8 }
%struct._zend_string = type { %struct._zend_refcounted_h, i64, i64, [1 x i8] }

@zend_write = external global ptr, align 8
@zend_uv = external global %struct._zend_utility_values, align 1
@zend_printf = external global ptr, align 8
@.str.7 = private unnamed_addr constant [34 x i8] c"<span style=\22color: %s\22>%s</span>\00", align 1
@.str.8 = private unnamed_addr constant [16 x i8] c"<i>no value</i>\00", align 1
@.str.9 = private unnamed_addr constant [9 x i8] c"no value\00", align 1

; Function Attrs: nounwind uwtable
define void @zend_ini_color_displayer_cb(ptr noundef %0, i32 noundef %1) #0 {
  %3 = alloca ptr, align 8
  %4 = alloca i32, align 4
  %5 = alloca ptr, align 8
  store ptr %0, ptr %3, align 8
  store i32 %1, ptr %4, align 4
  %6 = load i32, ptr %4, align 4
  %7 = icmp eq i32 %6, 1
  br i1 %7, label %8, label %20

8:                                                ; preds = %2
  %9 = load ptr, ptr %3, align 8
  %10 = getelementptr inbounds %struct._zend_ini_entry, ptr %9, i32 0, i32 11
  %11 = load i8, ptr %10, align 2
  %12 = zext i8 %11 to i32
  %13 = icmp ne i32 %12, 0
  br i1 %13, label %14, label %20

14:                                               ; preds = %8
  %15 = load ptr, ptr %3, align 8
  %16 = getelementptr inbounds %struct._zend_ini_entry, ptr %15, i32 0, i32 6
  %17 = load ptr, ptr %16, align 8
  %18 = getelementptr inbounds %struct._zend_string, ptr %17, i32 0, i32 3
  %19 = getelementptr inbounds [1 x i8], ptr %18, i64 0, i64 0
  store ptr %19, ptr %5, align 8
  br label %33

20:                                               ; preds = %8, %2
  %21 = load ptr, ptr %3, align 8
  %22 = getelementptr inbounds %struct._zend_ini_entry, ptr %21, i32 0, i32 5
  %23 = load ptr, ptr %22, align 8
  %24 = icmp ne ptr %23, null
  br i1 %24, label %25, label %31

25:                                               ; preds = %20
  %26 = load ptr, ptr %3, align 8
  %27 = getelementptr inbounds %struct._zend_ini_entry, ptr %26, i32 0, i32 5
  %28 = load ptr, ptr %27, align 8
  %29 = getelementptr inbounds %struct._zend_string, ptr %28, i32 0, i32 3
  %30 = getelementptr inbounds [1 x i8], ptr %29, i64 0, i64 0
  store ptr %30, ptr %5, align 8
  br label %32

31:                                               ; preds = %20
  store ptr null, ptr %5, align 8
  br label %32

32:                                               ; preds = %31, %25
  br label %33

33:                                               ; preds = %32, %14
  %34 = load ptr, ptr %5, align 8
  %35 = icmp ne ptr %34, null
  br i1 %35, label %36, label %51

36:                                               ; preds = %33
  %37 = load i8, ptr @zend_uv, align 1
  %38 = trunc i8 %37 to i1
  br i1 %38, label %39, label %44

39:                                               ; preds = %36
  %40 = load ptr, ptr @zend_printf, align 8
  %41 = load ptr, ptr %5, align 8
  %42 = load ptr, ptr %5, align 8
  %43 = call i64 (ptr, ...) %40(ptr noundef @.str.7, ptr noundef %41, ptr noundef %42)
  br label %50

44:                                               ; preds = %36
  %45 = load ptr, ptr @zend_write, align 8
  %46 = load ptr, ptr %5, align 8
  %47 = load ptr, ptr %5, align 8
  %48 = call i64 @strlen(ptr noundef %47) #16
  %49 = call i64 %45(ptr noundef %46, i64 noundef %48)
  br label %50

50:                                               ; preds = %44, %39
  br label %61

51:                                               ; preds = %33
  %52 = load i8, ptr @zend_uv, align 1
  %53 = trunc i8 %52 to i1
  br i1 %53, label %54, label %57

54:                                               ; preds = %51
  %55 = load ptr, ptr @zend_write, align 8
  %56 = call i64 %55(ptr noundef @.str.8, i64 noundef 15)
  br label %60

57:                                               ; preds = %51
  %58 = load ptr, ptr @zend_write, align 8
  %59 = call i64 %58(ptr noundef @.str.9, i64 noundef 8)
  br label %60

60:                                               ; preds = %57, %54
  br label %61

61:                                               ; preds = %60, %50
  ret void
}