; Function Attrs: nounwind uwtable
define void @zend_ini_color_displayer_cb(ptr nocapture noundef readonly %0, i32 noundef %1) local_unnamed_addr #0 {
  %3 = icmp eq i32 %1, 1
  br i1 %3, label %4, label %10

4:                                                ; preds = %2
  %5 = getelementptr inbounds i8, ptr %0, i64 70
  %6 = load i8, ptr %5, align 2
  %.not = icmp eq i8 %6, 0
  br i1 %.not, label %10, label %7

7:                                                ; preds = %4
  %8 = getelementptr inbounds i8, ptr %0, i64 48
  %9 = load ptr, ptr %8, align 8
  br label %13

10:                                               ; preds = %4, %2
  %11 = getelementptr inbounds i8, ptr %0, i64 40
  %12 = load ptr, ptr %11, align 8
  %.not10 = icmp eq ptr %12, null
  br i1 %.not10, label %23, label %13

13:                                               ; preds = %7, %10
  %.pn = phi ptr [ %12, %10 ], [ %9, %7 ]
  %.0.ph = getelementptr inbounds i8, ptr %.pn, i64 24
  %14 = load i8, ptr @zend_uv, align 1
  %15 = and i8 %14, 1
  %.not13 = icmp eq i8 %15, 0
  br i1 %.not13, label %19, label %16

16:                                               ; preds = %13
  %17 = load ptr, ptr @zend_printf, align 8
  %18 = tail call i64 (ptr, ...) %17(ptr noundef nonnull @.str.7, ptr noundef nonnull %.0.ph, ptr noundef nonnull %.0.ph) #20
  br label %31

19:                                               ; preds = %13
  %20 = load ptr, ptr @zend_write, align 8
  %21 = tail call i64 @strlen(ptr noundef nonnull dereferenceable(1) %.0.ph) #22
  %22 = tail call i64 %20(ptr noundef nonnull %.0.ph, i64 noundef %21) #20
  br label %31

23:                                               ; preds = %10
  %24 = load i8, ptr @zend_uv, align 1
  %25 = and i8 %24, 1
  %.not12 = icmp eq i8 %25, 0
  %26 = load ptr, ptr @zend_write, align 8
  br i1 %.not12, label %29, label %27

27:                                               ; preds = %23
  %28 = tail call i64 %26(ptr noundef nonnull @.str.8, i64 noundef 15) #20
  br label %31

29:                                               ; preds = %23
  %30 = tail call i64 %26(ptr noundef nonnull @.str.9, i64 noundef 8) #20
  br label %31

31:                                               ; preds = %27, %29, %16, %19
  ret void
}